; Function Attrs: inlinehint mustprogress nounwind uwtable
define internal fastcc void @"_ZZZN17grpc_event_engine12experimental18ThreadyEventEngine18ThreadyDNSResolver14LookupHostnameEN4absl12lts_2024072212AnyInvocableIFvNS4_8StatusOrISt6vectorINS0_11EventEngine15ResolvedAddressESaIS9_EEEEEEESt17basic_string_viewIcSt11char_traitsIcEESI_EN3$_0clESC_ENUlvE_D2Ev"(ptr noundef nonnull align 16 dereferenceable(64) %0) unnamed_addr #6 align 2 personality ptr @__gxx_personality_v0 {
  %2 = getelementptr inbounds nuw i8, ptr %0, i64 32
  %3 = load i64, ptr %2, align 16, !tbaa !79
  %4 = icmp eq i64 %3, 1
  br i1 %4, label %_ZN4absl12lts_202407226StatusD2Ev.exit.i, label %13

_ZN4absl12lts_202407226StatusD2Ev.exit.i:         ; preds = %1
  %5 = getelementptr inbounds nuw i8, ptr %0, i64 40
  %6 = load ptr, ptr %5, align 8, !tbaa !133
  %.not.i.i.i.i = icmp eq ptr %6, null
  br i1 %.not.i.i.i.i, label %_ZN4absl12lts_2024072217internal_statusor12StatusOrDataISt6vectorIN17grpc_event_engine12experimental11EventEngine15ResolvedAddressESaIS7_EEED2Ev.exit, label %7

7:                                                ; preds = %_ZN4absl12lts_202407226StatusD2Ev.exit.i
  %8 = getelementptr inbounds nuw i8, ptr %0, i64 56
  %9 = load ptr, ptr %8, align 8, !tbaa !137
  %10 = ptrtoint ptr %9 to i64
  %11 = ptrtoint ptr %6 to i64
  %12 = sub i64 %10, %11
  tail call void @_ZdlPvm(ptr noundef nonnull %6, i64 noundef %12) #31
  br label %_ZN4absl12lts_2024072217internal_statusor12StatusOrDataISt6vectorIN17grpc_event_engine12experimental11EventEngine15ResolvedAddressESaIS7_EEED2Ev.exit

13:                                               ; preds = %1
  %14 = and i64 %3, 1
  %.not.i.i1.i = icmp eq i64 %14, 0
  br i1 %.not.i.i1.i, label %15, label %_ZN4absl12lts_2024072217internal_statusor12StatusOrDataISt6vectorIN17grpc_event_engine12experimental11EventEngine15ResolvedAddressESaIS7_EEED2Ev.exit

15:                                               ; preds = %13
  %16 = inttoptr i64 %3 to ptr
  invoke void @_ZNK4absl12lts_2024072215status_internal9StatusRep5UnrefEv(ptr noundef nonnull align 8 dereferenceable(48) %16)
          to label %_ZN4absl12lts_2024072217internal_statusor12StatusOrDataISt6vectorIN17grpc_event_engine12experimental11EventEngine15ResolvedAddressESaIS7_EEED2Ev.exit unwind label %17

17:                                               ; preds = %15
  %18 = landingpad { ptr, i32 }
          catch ptr null
  %19 = extractvalue { ptr, i32 } %18, 0
  tail call void @__clang_call_terminate(ptr %19) #29
  unreachable

_ZN4absl12lts_2024072217internal_statusor12StatusOrDataISt6vectorIN17grpc_event_engine12experimental11EventEngine15ResolvedAddressESaIS7_EEED2Ev.exit: ; preds = %_ZN4absl12lts_202407226StatusD2Ev.exit.i, %7, %13, %15
  %20 = getelementptr inbounds nuw i8, ptr %0, i64 16
  %21 = load ptr, ptr %20, align 16, !tbaa !109
  tail call void %21(i1 noundef zeroext true, ptr noundef nonnull align 16 dereferenceable(32) %0, ptr noundef nonnull align 16 dereferenceable(32) %0) #26
  ret void
}